target datalayout = "e-m:e-p270:32:32-p271:32:32-p272:64:64-i64:64-i128:128-f80:128-n8:16:32:64-S128"
target triple = "x86_64-pc-linux-gnu"

%struct.Vec_Ptr_t_ = type { i32, i32, ptr }

@Gia_ManRandom.m_z = internal global i32 -578006775, align 4
@Gia_ManRandom.m_w = internal global i32 -2120863760, align 4

; Function Attrs: nounwind uwtable
define i32 @Gia_ManRandom(i32 noundef %0) #0 {
  %2 = alloca i32, align 4
  store i32 %0, ptr %2, align 4
  %3 = load i32, ptr %2, align 4
  %4 = icmp ne i32 %3, 0
  br i1 %4, label %5, label %6

5:                                                ; preds = %1
  store i32 -578006775, ptr @Gia_ManRandom.m_z, align 4
  store i32 -2120863760, ptr @Gia_ManRandom.m_w, align 4
  br label %6

6:                                                ; preds = %5, %1
  %7 = load i32, ptr @Gia_ManRandom.m_z, align 4
  %8 = and i32 %7, 65535
  %9 = mul i32 36969, %8
  %10 = load i32, ptr @Gia_ManRandom.m_z, align 4
  %11 = lshr i32 %10, 16
  %12 = add i32 %9, %11
  store i32 %12, ptr @Gia_ManRandom.m_z, align 4
  %13 = load i32, ptr @Gia_ManRandom.m_w, align 4
  %14 = and i32 %13, 65535
  %15 = mul i32 18000, %14
  %16 = load i32, ptr @Gia_ManRandom.m_w, align 4
  %17 = lshr i32 %16, 16
  %18 = add i32 %15, %17
  store i32 %18, ptr @Gia_ManRandom.m_w, align 4
  %19 = load i32, ptr @Gia_ManRandom.m_z, align 4
  %20 = shl i32 %19, 16
  %21 = load i32, ptr @Gia_ManRandom.m_w, align 4
  %22 = add i32 %20, %21
  ret i32 %22
}

; Function Attrs: nounwind uwtable
define internal ptr @Vec_PtrEntry(ptr noundef %0, i32 noundef %1) #0 {
  %3 = alloca ptr, align 8
  %4 = alloca i32, align 4
  store ptr %0, ptr %3, align 8
  store i32 %1, ptr %4, align 4
  %5 = load ptr, ptr %3, align 8
  %6 = getelementptr inbounds %struct.Vec_Ptr_t_, ptr %5, i32 0, i32 2
  %7 = load ptr, ptr %6, align 8
  %8 = load i32, ptr %4, align 4
  %9 = sext i32 %8 to i64
  %10 = getelementptr inbounds ptr, ptr %7, i64 %9
  %11 = load ptr, ptr %10, align 8
  ret ptr %11
}

; Function Attrs: nounwind uwtable
define internal i32 @Vec_PtrSize(ptr noundef %0) #0 {
  %2 = alloca ptr, align 8
  store ptr %0, ptr %2, align 8
  %3 = load ptr, ptr %2, align 8
  %4 = getelementptr inbounds %struct.Vec_Ptr_t_, ptr %3, i32 0, i32 1
  %5 = load i32, ptr %4, align 4
  ret i32 %5
}

; Function Attrs: nounwind uwtable
define void @Gia_ManRandomInfo(ptr noundef %0, i32 noundef %1, i32 noundef %2, i32 noundef %3) #0 {
  %5 = alloca ptr, align 8
  %6 = alloca i32, align 4
  %7 = alloca i32, align 4
  %8 = alloca i32, align 4
  %9 = alloca ptr, align 8
  %10 = alloca i32, align 4
  %11 = alloca i32, align 4
  store ptr %0, ptr %5, align 8
  store i32 %1, ptr %6, align 4
  store i32 %2, ptr %7, align 4
  store i32 %3, ptr %8, align 4
  %12 = load i32, ptr %6, align 4
  store i32 %12, ptr %10, align 4
  br label %13

13:                                               ; preds = %40, %4
  %14 = load i32, ptr %10, align 4
  %15 = load ptr, ptr %5, align 8
  %16 = call i32 @Vec_PtrSize(ptr noundef %15)
  %17 = icmp slt i32 %14, %16
  br i1 %17, label %18, label %22

18:                                               ; preds = %13
  %19 = load ptr, ptr %5, align 8
  %20 = load i32, ptr %10, align 4
  %21 = call ptr @Vec_PtrEntry(ptr noundef %19, i32 noundef %20)
  store ptr %21, ptr %9, align 8
  br label %22

22:                                               ; preds = %18, %13
  %23 = phi i1 [ false, %13 ], [ true, %18 ]
  br i1 %23, label %24, label %43

24:                                               ; preds = %22
  %25 = load i32, ptr %7, align 4
  store i32 %25, ptr %11, align 4
  br label %26

26:                                               ; preds = %36, %24
  %27 = load i32, ptr %11, align 4
  %28 = load i32, ptr %8, align 4
  %29 = icmp slt i32 %27, %28
  br i1 %29, label %30, label %39

30:                                               ; preds = %26
  %31 = call i32 @Gia_ManRandom(i32 noundef 0)
  %32 = load ptr, ptr %9, align 8
  %33 = load i32, ptr %11, align 4
  %34 = sext i32 %33 to i64
  %35 = getelementptr inbounds i32, ptr %32, i64 %34
  store i32 %31, ptr %35, align 4
  br label %36

36:                                               ; preds = %30
  %37 = load i32, ptr %11, align 4
  %38 = add nsw i32 %37, 1
  store i32 %38, ptr %11, align 4
  br label %26, !llvm.loop !4

39:                                               ; preds = %26
  br label %40

40:                                               ; preds = %39
  %41 = load i32, ptr %10, align 4
  %42 = add nsw i32 %41, 1
  store i32 %42, ptr %10, align 4
  br label %13, !llvm.loop !6

43:                                               ; preds = %22
  ret void
}