; Function Attrs: nofree norecurse nosync nounwind memory(readwrite, inaccessiblemem: none) uwtable
define void @Gia_ManRandomInfo(ptr noundef readonly captures(none) %0, i32 noundef %1, i32 noundef %2, i32 noundef %3) local_unnamed_addr #1 {
  %5 = getelementptr i8, ptr %0, i64 4
  %.val21 = load i32, ptr %5, align 4
  %6 = icmp slt i32 %1, %.val21
  br i1 %6, label %.lr.ph26, label %.critedge

.lr.ph26:                                         ; preds = %4
  %7 = getelementptr i8, ptr %0, i64 8
  %8 = icmp slt i32 %2, %3
  br i1 %8, label %.lr.ph.us.preheader, label %.critedge

.lr.ph.us.preheader:                              ; preds = %.lr.ph26
  %Gia_ManRandom.m_z.promoted15 = load i32, ptr @Gia_ManRandom.m_z, align 4
  %Gia_ManRandom.m_w.promoted18 = load i32, ptr @Gia_ManRandom.m_w, align 4
  %9 = sext i32 %2 to i64
  %10 = sext i32 %1 to i64
  %wide.trip.count = sext i32 %3 to i64
  br label %.lr.ph.us

.lr.ph.us:                                        ; preds = %.lr.ph.us.preheader, %._crit_edge.us
  %indvars.iv29 = phi i64 [ %10, %.lr.ph.us.preheader ], [ %indvars.iv.next30, %._crit_edge.us ]
  %.lcssa1723.us = phi i32 [ %Gia_ManRandom.m_z.promoted15, %.lr.ph.us.preheader ], [ %19, %._crit_edge.us ]
  %.lcssa142022.us = phi i32 [ %Gia_ManRandom.m_w.promoted18, %.lr.ph.us.preheader ], [ %23, %._crit_edge.us ]
  %.val12.us = load ptr, ptr %7, align 8
  %11 = getelementptr inbounds ptr, ptr %.val12.us, i64 %indvars.iv29
  %12 = load ptr, ptr %11, align 8
  br label %13

13:                                               ; preds = %.lr.ph.us, %13
  %indvars.iv = phi i64 [ %9, %.lr.ph.us ], [ %indvars.iv.next, %13 ]
  %14 = phi i32 [ %.lcssa1723.us, %.lr.ph.us ], [ %19, %13 ]
  %15 = phi i32 [ %.lcssa142022.us, %.lr.ph.us ], [ %23, %13 ]
  %16 = and i32 %14, 65535
  %17 = mul nuw i32 %16, 36969
  %18 = lshr i32 %14, 16
  %19 = add nuw i32 %17, %18
  %20 = and i32 %15, 65535
  %21 = mul nuw nsw i32 %20, 18000
  %22 = lshr i32 %15, 16
  %23 = add nuw nsw i32 %21, %22
  %24 = shl i32 %19, 16
  %25 = add i32 %23, %24
  %26 = getelementptr inbounds i32, ptr %12, i64 %indvars.iv
  store i32 %25, ptr %26, align 4
  %indvars.iv.next = add nsw i64 %indvars.iv, 1
  %exitcond.not = icmp eq i64 %indvars.iv.next, %wide.trip.count
  br i1 %exitcond.not, label %._crit_edge.us, label %13, !llvm.loop !4

._crit_edge.us:                                   ; preds = %13
  %indvars.iv.next30 = add nsw i64 %indvars.iv29, 1
  %.val.us = load i32, ptr %5, align 4
  %27 = sext i32 %.val.us to i64
  %28 = icmp slt i64 %indvars.iv.next30, %27
  br i1 %28, label %.lr.ph.us, label %..critedge_crit_edge.split.us, !llvm.loop !6

..critedge_crit_edge.split.us:                    ; preds = %._crit_edge.us
  store i32 %19, ptr @Gia_ManRandom.m_z, align 4
  store i32 %23, ptr @Gia_ManRandom.m_w, align 4
  br label %.critedge

.critedge:                                        ; preds = %.lr.ph26, %..critedge_crit_edge.split.us, %4
  ret void
}